; Function Attrs: mustprogress nofree norecurse nosync nounwind willreturn memory(argmem: readwrite) uwtable
define void @_ZN6google8protobuf4util18MessageDifferencer19ReportDifferencesToEPNS2_8ReporterE(ptr nocapture noundef nonnull align 8 dereferenceable(432) %this, ptr noundef %reporter) local_unnamed_addr #12 align 2 {
entry:
  %output_string_ = getelementptr inbounds i8, ptr %this, i64 384
  %0 = load ptr, ptr %output_string_, align 8
  %tobool.not = icmp eq ptr %0, null
  br i1 %tobool.not, label %if.end, label %if.then

if.then:                                          ; preds = %entry
  store ptr null, ptr %output_string_, align 8
  br label %if.end

if.end:                                           ; preds = %if.then, %entry
  store ptr %reporter, ptr %this, align 8
  ret void
}